target datalayout = "e-m:e-p270:32:32-p271:32:32-p272:64:64-i64:64-i128:128-f80:128-n8:16:32:64-S128"
target triple = "x86_64-pc-linux-gnu"

%struct.CVodeMemRec = type { ptr, double, ptr, ptr, i32, i32, double, double, ptr, i32, i32, ptr, ptr, i32, [13 x ptr], ptr, ptr, ptr, ptr, ptr, ptr, ptr, ptr, ptr, i32, i32, double, i32, i32, i32, i32, i32, double, double, double, double, double, double, double, double, [14 x double], [6 x double], [13 x double], double, double, double, double, double, double, double, i32, double, i32, i64, i32, i32, i32, double, double, double, double, double, double, double, double, double, double, double, double, i64, i32, i64, i64, i64, i64, i64, i64, i64, i32, double, double, double, i64, i64, i64, i64, ptr, i32, ptr, i32, ptr, ptr, ptr, ptr, ptr, i64, double, i32, i64, double, double, double, i32, double, i32, i32, i32, i32, i32, ptr, i64, i32, [6 x [4 x double]], i32, i64, ptr, i32, ptr, ptr, double, double, double, ptr, ptr, ptr, double, double, i32, i32, i64, ptr, i32, ptr, i32, i32, [13 x double], [13 x double], [13 x ptr], i32 }
%struct.CVLsMemRec = type { i32, i32, i32, ptr, ptr, i32, double, i32, double, double, ptr, ptr, ptr, ptr, ptr, ptr, ptr, i64, i64, i64, i64, i64, i64, i64, i64, i64, i64, double, ptr, ptr, ptr, ptr, i32, ptr, ptr, ptr, ptr, i32, ptr, ptr, i32 }

@.str = private unnamed_addr constant [116 x i8] c"generated/home/dtcxzyw/WorkSpace/Projects/compilers/llvm-opt-benchmark/bench/sundials/sundials/src/cvode/cvode_ls.c\00", align 1
@.str.1 = private unnamed_addr constant [27 x i8] c"Integrator memory is NULL.\00", align 1
@__func__.cvLsPSetup = private unnamed_addr constant [11 x i8] c"cvLsPSetup\00", align 1
@.str.30 = private unnamed_addr constant [30 x i8] c"Linear solver memory is NULL.\00", align 1

; Function Attrs: nounwind uwtable
define i32 @cvLs_AccessLMem(ptr noundef %0, ptr noundef %1, ptr noundef %2, ptr noundef %3) #0 {
  %5 = alloca i32, align 4
  %6 = alloca ptr, align 8
  %7 = alloca ptr, align 8
  %8 = alloca ptr, align 8
  %9 = alloca ptr, align 8
  store ptr %0, ptr %6, align 8, !tbaa !3
  store ptr %1, ptr %7, align 8, !tbaa !117
  store ptr %2, ptr %8, align 8, !tbaa !119
  store ptr %3, ptr %9, align 8, !tbaa !121
  %10 = load ptr, ptr %6, align 8, !tbaa !3
  %11 = icmp eq ptr %10, null
  br i1 %11, label %12, label %14

12:                                               ; preds = %4
  %13 = load ptr, ptr %7, align 8, !tbaa !117
  call void (ptr, i32, i32, ptr, ptr, ptr, ...) @cvProcessError(ptr noundef null, i32 noundef -1, i32 noundef 1930, ptr noundef %13, ptr noundef @.str, ptr noundef @.str.1)
  store i32 -1, ptr %5, align 4
  br label %32

14:                                               ; preds = %4
  %15 = load ptr, ptr %6, align 8, !tbaa !3
  %16 = load ptr, ptr %8, align 8, !tbaa !119
  store ptr %15, ptr %16, align 8, !tbaa !11
  %17 = load ptr, ptr %8, align 8, !tbaa !119
  %18 = load ptr, ptr %17, align 8, !tbaa !11
  %19 = getelementptr inbounds nuw %struct.CVodeMemRec, ptr %18, i32 0, i32 94
  %20 = load ptr, ptr %19, align 8, !tbaa !79
  %21 = icmp eq ptr %20, null
  br i1 %21, label %22, label %26

22:                                               ; preds = %14
  %23 = load ptr, ptr %8, align 8, !tbaa !119
  %24 = load ptr, ptr %23, align 8, !tbaa !11
  %25 = load ptr, ptr %7, align 8, !tbaa !117
  call void (ptr, i32, i32, ptr, ptr, ptr, ...) @cvProcessError(ptr noundef %24, i32 noundef -2, i32 noundef 1937, ptr noundef %25, ptr noundef @.str, ptr noundef @.str.30)
  store i32 -2, ptr %5, align 4
  br label %32

26:                                               ; preds = %14
  %27 = load ptr, ptr %8, align 8, !tbaa !119
  %28 = load ptr, ptr %27, align 8, !tbaa !11
  %29 = getelementptr inbounds nuw %struct.CVodeMemRec, ptr %28, i32 0, i32 94
  %30 = load ptr, ptr %29, align 8, !tbaa !79
  %31 = load ptr, ptr %9, align 8, !tbaa !121
  store ptr %30, ptr %31, align 8, !tbaa !43
  store i32 0, ptr %5, align 4
  br label %32

32:                                               ; preds = %26, %22, %12
  %33 = load i32, ptr %5, align 4
  ret i32 %33
}

; Function Attrs: nounwind uwtable
define i32 @cvLsPSetup(ptr noundef %0) #0 {
  %2 = alloca i32, align 4
  %3 = alloca ptr, align 8
  %4 = alloca i32, align 4
  %5 = alloca ptr, align 8
  %6 = alloca ptr, align 8
  %7 = alloca i32, align 4
  store ptr %0, ptr %3, align 8, !tbaa !3
  call void @llvm.lifetime.start.p0(i64 4, ptr %4) #7
  call void @llvm.lifetime.start.p0(i64 8, ptr %5) #7
  call void @llvm.lifetime.start.p0(i64 8, ptr %6) #7
  %8 = load ptr, ptr %3, align 8, !tbaa !3
  %9 = call i32 @cvLs_AccessLMem(ptr noundef %8, ptr noundef @__func__.cvLsPSetup, ptr noundef %5, ptr noundef %6)
  store i32 %9, ptr %4, align 4, !tbaa !20
  %10 = load i32, ptr %4, align 4, !tbaa !20
  %11 = icmp ne i32 %10, 0
  br i1 %11, label %12, label %14

12:                                               ; preds = %1
  %13 = load i32, ptr %4, align 4, !tbaa !20
  store i32 %13, ptr %2, align 4
  store i32 1, ptr %7, align 4
  br label %43

14:                                               ; preds = %1
  %15 = load ptr, ptr %6, align 8, !tbaa !43
  %16 = getelementptr inbounds nuw %struct.CVLsMemRec, ptr %15, i32 0, i32 28
  %17 = load ptr, ptr %16, align 8, !tbaa !61
  %18 = load ptr, ptr %5, align 8, !tbaa !11
  %19 = getelementptr inbounds nuw %struct.CVodeMemRec, ptr %18, i32 0, i32 38
  %20 = load double, ptr %19, align 8, !tbaa !94
  %21 = load ptr, ptr %6, align 8, !tbaa !43
  %22 = getelementptr inbounds nuw %struct.CVLsMemRec, ptr %21, i32 0, i32 15
  %23 = load ptr, ptr %22, align 8, !tbaa !87
  %24 = load ptr, ptr %6, align 8, !tbaa !43
  %25 = getelementptr inbounds nuw %struct.CVLsMemRec, ptr %24, i32 0, i32 16
  %26 = load ptr, ptr %25, align 8, !tbaa !88
  %27 = load ptr, ptr %6, align 8, !tbaa !43
  %28 = getelementptr inbounds nuw %struct.CVLsMemRec, ptr %27, i32 0, i32 5
  %29 = load i32, ptr %28, align 8, !tbaa !67
  %30 = icmp ne i32 %29, 0
  %31 = xor i1 %30, true
  %32 = zext i1 %31 to i32
  %33 = load ptr, ptr %5, align 8, !tbaa !11
  %34 = getelementptr inbounds nuw %struct.CVodeMemRec, ptr %33, i32 0, i32 102
  %35 = load ptr, ptr %5, align 8, !tbaa !11
  %36 = getelementptr inbounds nuw %struct.CVodeMemRec, ptr %35, i32 0, i32 44
  %37 = load double, ptr %36, align 8, !tbaa !89
  %38 = load ptr, ptr %6, align 8, !tbaa !43
  %39 = getelementptr inbounds nuw %struct.CVLsMemRec, ptr %38, i32 0, i32 31
  %40 = load ptr, ptr %39, align 8, !tbaa !65
  %41 = call i32 %17(double noundef %20, ptr noundef %23, ptr noundef %26, i32 noundef %32, ptr noundef %34, double noundef %37, ptr noundef %40)
  store i32 %41, ptr %4, align 4, !tbaa !20
  %42 = load i32, ptr %4, align 4, !tbaa !20
  store i32 %42, ptr %2, align 4
  store i32 1, ptr %7, align 4
  br label %43

43:                                               ; preds = %14, %12
  call void @llvm.lifetime.end.p0(i64 8, ptr %6) #7
  call void @llvm.lifetime.end.p0(i64 8, ptr %5) #7
  call void @llvm.lifetime.end.p0(i64 4, ptr %4) #7
  %44 = load i32, ptr %2, align 4
  ret i32 %44
}