; Function Attrs: nounwind uwtable
define i32 @cvLsPSetup(ptr noundef %0) #0 {
  %2 = icmp eq ptr %0, null
  br i1 %2, label %3, label %4

3:                                                ; preds = %1
  tail call void (ptr, i32, i32, ptr, ptr, ptr, ...) @cvProcessError(ptr noundef null, i32 noundef -1, i32 noundef 1930, ptr noundef nonnull @__func__.cvLsPSetup, ptr noundef nonnull @.str, ptr noundef nonnull @.str.1) #13
  br label %cvLs_AccessLMem.exit.thread

4:                                                ; preds = %1
  %5 = getelementptr inbounds nuw i8, ptr %0, i64 1040
  %6 = load ptr, ptr %5, align 8, !tbaa !69
  %7 = icmp eq ptr %6, null
  br i1 %7, label %8, label %cvLs_AccessLMem.exit

8:                                                ; preds = %4
  tail call void (ptr, i32, i32, ptr, ptr, ptr, ...) @cvProcessError(ptr noundef nonnull %0, i32 noundef -2, i32 noundef 1937, ptr noundef nonnull @__func__.cvLsPSetup, ptr noundef nonnull @.str, ptr noundef nonnull @.str.30) #13
  br label %cvLs_AccessLMem.exit.thread

cvLs_AccessLMem.exit:                             ; preds = %4
  %9 = getelementptr inbounds nuw i8, ptr %6, i64 216
  %10 = load ptr, ptr %9, align 8, !tbaa !75
  %11 = getelementptr inbounds nuw i8, ptr %0, i64 360
  %12 = load double, ptr %11, align 8, !tbaa !82
  %13 = getelementptr inbounds nuw i8, ptr %6, i64 112
  %14 = load ptr, ptr %13, align 8, !tbaa !76
  %15 = getelementptr inbounds nuw i8, ptr %6, i64 120
  %16 = load ptr, ptr %15, align 8, !tbaa !77
  %17 = getelementptr inbounds nuw i8, ptr %6, i64 32
  %18 = load i32, ptr %17, align 8, !tbaa !56
  %.not5 = icmp eq i32 %18, 0
  %19 = zext i1 %.not5 to i32
  %20 = getelementptr inbounds nuw i8, ptr %0, i64 1104
  %21 = getelementptr inbounds nuw i8, ptr %0, i64 648
  %22 = load double, ptr %21, align 8, !tbaa !78
  %23 = getelementptr inbounds nuw i8, ptr %6, i64 240
  %24 = load ptr, ptr %23, align 8, !tbaa !54
  %25 = tail call i32 %10(double noundef %12, ptr noundef %14, ptr noundef %16, i32 noundef %19, ptr noundef nonnull %20, double noundef %22, ptr noundef %24) #13
  br label %cvLs_AccessLMem.exit.thread

cvLs_AccessLMem.exit.thread:                      ; preds = %8, %3, %cvLs_AccessLMem.exit
  %.0 = phi i32 [ %25, %cvLs_AccessLMem.exit ], [ -2, %8 ], [ -1, %3 ]
  ret i32 %.0
}